target datalayout = "e-m:e-p270:32:32-p271:32:32-p272:64:64-i64:64-i128:128-f80:128-n8:16:32:64-S128"
target triple = "x86_64-pc-linux-gnu"

%struct._zend_executor_globals = type { %struct._zval_struct, %struct._zval_struct, [32 x ptr], ptr, ptr, %struct._zend_array, %struct._zend_array, ptr, i32, i32, ptr, ptr, ptr, ptr, ptr, ptr, i64, ptr, ptr, i32, i32, i64, i32, i32, i32, i8, i8, %struct.zend_atomic_bool_s, %struct.zend_atomic_bool_s, ptr, i64, ptr, ptr, %struct._zend_array, %struct._zend_array, i32, i8, %struct._zval_struct, %struct._zval_struct, %struct._zend_stack, %struct._zend_stack, %struct._zend_stack, ptr, i32, i32, i64, ptr, ptr, ptr, %struct._zend_objects_store, ptr, ptr, ptr, [3 x %struct._zend_op], ptr, i8, i8, i64, i32, i32, ptr, [16 x %struct._HashTableIterator], ptr, %union._zend_function, %struct._zend_op, %struct._zend_array, i64, %struct.zend_get_gc_buffer, ptr, ptr, ptr, i64, i8, i32, ptr, ptr, i64, %struct._zend_call_stack, i64, i64, [6 x ptr] }
%struct.zend_atomic_bool_s = type { i8 }
%struct._zval_struct = type { %union._zend_value, %union.anon, %union.anon.2 }
%union._zend_value = type { i64 }
%union.anon = type { i32 }
%union.anon.2 = type { i32 }
%struct._zend_stack = type { i32, i32, i32, ptr }
%struct._zend_objects_store = type { ptr, i32, i32, i32 }
%struct._HashTableIterator = type { ptr, i32, i32 }
%union._zend_function = type { %struct._zend_op_array }
%struct._zend_op_array = type { i8, [3 x i8], i32, ptr, ptr, ptr, i32, i32, ptr, ptr, ptr, ptr, i32, i32, i32, i32, ptr, ptr, ptr, ptr, ptr, i32, i32, ptr, ptr, ptr, i32, i32, i32, i32, ptr, ptr, [6 x ptr] }
%struct._zend_op = type { ptr, %union._znode_op, %union._znode_op, %union._znode_op, i32, i32, i8, i8, i8, i8 }
%union._znode_op = type { i32 }
%struct._zend_array = type { %struct._zend_refcounted_h, %union.anon.4, i32, %union.anon.6, i32, i32, i32, i32, i64, ptr }
%struct._zend_refcounted_h = type { i32, %union.anon.3 }
%union.anon.3 = type { i32 }
%union.anon.4 = type { i32 }
%union.anon.6 = type { ptr }
%struct.zend_get_gc_buffer = type { ptr, ptr, ptr }
%struct._zend_call_stack = type { ptr, i64 }
%struct._php_ps_globals = type { ptr, ptr, ptr, ptr, ptr, i64, ptr, ptr, ptr, i8, i8, ptr, ptr, ptr, i32, ptr, i32, i32, %struct._php_random_status_state_pcgoneseq128xslrr64, %struct._php_random_algo_with_state, i64, i64, i64, i64, %struct.anon.8, ptr, i8, i8, i8, i8, i8, i8, i8, i8, ptr, %struct._zval_struct, i64, i64, ptr, ptr, ptr, i64, double, i8, i8, i8, i8, i8, i8, ptr }
%struct._php_random_status_state_pcgoneseq128xslrr64 = type { i128 }
%struct._php_random_algo_with_state = type { ptr, ptr }
%struct.anon.8 = type { %struct._zval_struct, %struct._zval_struct, %struct._zval_struct, %struct._zval_struct, %struct._zval_struct, %struct._zval_struct, %struct._zval_struct, %struct._zval_struct, %struct._zval_struct }
%struct._zend_execute_data = type { ptr, ptr, ptr, ptr, %struct._zval_struct, ptr, ptr, ptr, ptr }
%struct.ps_module_struct = type { ptr, ptr, ptr, ptr, ptr, ptr, ptr, ptr, ptr, ptr }
%struct._zend_string = type { %struct._zend_refcounted_h, i64, i64, [1 x i8] }

@executor_globals = external global %struct._zend_executor_globals, align 8
@ps_globals = external global %struct._php_ps_globals, align 16
@.str.1 = private unnamed_addr constant [22 x i8] c"Session is not active\00", align 1
@.str.2 = private unnamed_addr constant [36 x i8] c"Cannot call default session handler\00", align 1
@.str.4 = private unnamed_addr constant [35 x i8] c"Parent session handler is not open\00", align 1
@.str.5 = private unnamed_addr constant [2 x i8] c"S\00", align 1

; Function Attrs: nounwind uwtable
define hidden void @zim_SessionHandler_read(ptr noundef %0, ptr noundef %1) #0 {
  %3 = alloca i32, align 4
  %4 = alloca ptr, align 8
  %5 = alloca ptr, align 8
  %6 = alloca ptr, align 8
  %7 = alloca ptr, align 8
  %8 = alloca ptr, align 8
  %9 = alloca ptr, align 8
  store ptr %0, ptr %4, align 8
  store ptr %1, ptr %5, align 8
  %10 = load ptr, ptr %4, align 8
  %11 = getelementptr inbounds %struct._zend_execute_data, ptr %10, i32 0, i32 4
  %12 = getelementptr inbounds %struct._zval_struct, ptr %11, i32 0, i32 2
  %13 = load i32, ptr %12, align 4
  %14 = call i32 (i32, ptr, ...) @zend_parse_parameters(i32 noundef %13, ptr noundef @.str.5, ptr noundef %7)
  %15 = icmp eq i32 %14, -1
  br i1 %15, label %16, label %21

16:                                               ; preds = %2
  br label %17

17:                                               ; preds = %16
  %18 = load ptr, ptr getelementptr inbounds (%struct._zend_executor_globals, ptr @executor_globals, i32 0, i32 50), align 8
  %19 = icmp ne ptr %18, null
  call void @llvm.assume(i1 %19)
  br label %82

20:                                               ; No predecessors!
  br label %21

21:                                               ; preds = %20, %2
  %22 = load i32, ptr getelementptr inbounds (%struct._php_ps_globals, ptr @ps_globals, i32 0, i32 14), align 8
  %23 = icmp ne i32 %22, 2
  br i1 %23, label %24, label %29

24:                                               ; preds = %21
  call void (ptr, ptr, ...) @zend_throw_error(ptr noundef null, ptr noundef @.str.1)
  br label %25

25:                                               ; preds = %24
  %26 = load ptr, ptr getelementptr inbounds (%struct._zend_executor_globals, ptr @executor_globals, i32 0, i32 50), align 8
  %27 = icmp ne ptr %26, null
  call void @llvm.assume(i1 %27)
  br label %82

28:                                               ; No predecessors!
  br label %29

29:                                               ; preds = %28, %21
  %30 = load ptr, ptr getelementptr inbounds (%struct._php_ps_globals, ptr @ps_globals, i32 0, i32 12), align 8
  %31 = icmp eq ptr %30, null
  br i1 %31, label %32, label %37

32:                                               ; preds = %29
  call void (ptr, ptr, ...) @zend_throw_error(ptr noundef null, ptr noundef @.str.2)
  br label %33

33:                                               ; preds = %32
  %34 = load ptr, ptr getelementptr inbounds (%struct._zend_executor_globals, ptr @executor_globals, i32 0, i32 50), align 8
  %35 = icmp ne ptr %34, null
  call void @llvm.assume(i1 %35)
  br label %82

36:                                               ; No predecessors!
  br label %37

37:                                               ; preds = %36, %29
  %38 = load i8, ptr getelementptr inbounds (%struct._php_ps_globals, ptr @ps_globals, i32 0, i32 27), align 1
  %39 = trunc i8 %38 to i1
  br i1 %39, label %47, label %40

40:                                               ; preds = %37
  call void (ptr, i32, ptr, ...) @php_error_docref(ptr noundef null, i32 noundef 2, ptr noundef @.str.4)
  br label %41

41:                                               ; preds = %40
  br label %42

42:                                               ; preds = %41
  %43 = load ptr, ptr %5, align 8
  %44 = getelementptr inbounds %struct._zval_struct, ptr %43, i32 0, i32 1
  store i32 2, ptr %44, align 8
  br label %45

45:                                               ; preds = %42
  br label %82

46:                                               ; No predecessors!
  br label %47

47:                                               ; preds = %46, %37
  %48 = load ptr, ptr getelementptr inbounds (%struct._php_ps_globals, ptr @ps_globals, i32 0, i32 12), align 8
  %49 = getelementptr inbounds %struct.ps_module_struct, ptr %48, i32 0, i32 3
  %50 = load ptr, ptr %49, align 8
  %51 = load ptr, ptr %7, align 8
  %52 = load i64, ptr getelementptr inbounds (%struct._php_ps_globals, ptr @ps_globals, i32 0, i32 22), align 16
  %53 = call i32 %50(ptr noundef getelementptr inbounds (%struct._php_ps_globals, ptr @ps_globals, i32 0, i32 13), ptr noundef %51, ptr noundef %6, i64 noundef %52)
  %54 = icmp eq i32 %53, -1
  br i1 %54, label %55, label %62

55:                                               ; preds = %47
  br label %56

56:                                               ; preds = %55
  br label %57

57:                                               ; preds = %56
  %58 = load ptr, ptr %5, align 8
  %59 = getelementptr inbounds %struct._zval_struct, ptr %58, i32 0, i32 1
  store i32 2, ptr %59, align 8
  br label %60

60:                                               ; preds = %57
  br label %82

61:                                               ; No predecessors!
  br label %62

62:                                               ; preds = %61, %47
  br label %63

63:                                               ; preds = %62
  br label %64

64:                                               ; preds = %63
  %65 = load ptr, ptr %5, align 8
  store ptr %65, ptr %8, align 8
  %66 = load ptr, ptr %6, align 8
  store ptr %66, ptr %9, align 8
  %67 = load ptr, ptr %9, align 8
  %68 = load ptr, ptr %8, align 8
  %69 = getelementptr inbounds %struct._zval_struct, ptr %68, i32 0, i32 0
  store ptr %67, ptr %69, align 8
  %70 = load ptr, ptr %9, align 8
  %71 = getelementptr inbounds %struct._zend_string, ptr %70, i32 0, i32 0
  %72 = getelementptr inbounds %struct._zend_refcounted_h, ptr %71, i32 0, i32 1
  %73 = load i32, ptr %72, align 4
  store i32 %73, ptr %3, align 4
  %74 = load i32, ptr %3, align 4
  %75 = and i32 %74, 1008
  %76 = and i32 %75, 64
  %77 = icmp ne i32 %76, 0
  %78 = select i1 %77, i32 6, i32 262
  %79 = load ptr, ptr %8, align 8
  %80 = getelementptr inbounds %struct._zval_struct, ptr %79, i32 0, i32 1
  store i32 %78, ptr %80, align 8
  br label %81

81:                                               ; preds = %64
  br label %82

82:                                               ; preds = %81, %60, %45, %33, %25, %17
  ret void
}