; Function Attrs: nounwind uwtable
define hidden void @zim_SessionHandler_read(ptr nocapture noundef readonly %0, ptr nocapture noundef writeonly %1) local_unnamed_addr #0 {
  %3 = alloca ptr, align 8
  %4 = alloca ptr, align 8
  %5 = getelementptr inbounds i8, ptr %0, i64 44
  %6 = load i32, ptr %5, align 4
  %7 = call i32 (i32, ptr, ...) @zend_parse_parameters(i32 noundef %6, ptr noundef nonnull @.str.5, ptr noundef nonnull %4) #5
  %8 = icmp eq i32 %7, -1
  br i1 %8, label %9, label %12

9:                                                ; preds = %2
  %10 = load ptr, ptr getelementptr inbounds (%struct._zend_executor_globals, ptr @executor_globals, i64 0, i32 50), align 8
  %11 = icmp ne ptr %10, null
  call void @llvm.assume(i1 %11)
  br label %44

12:                                               ; preds = %2
  %13 = load i32, ptr getelementptr inbounds (%struct._php_ps_globals, ptr @ps_globals, i64 0, i32 14), align 8
  %.not = icmp eq i32 %13, 2
  br i1 %.not, label %17, label %14

14:                                               ; preds = %12
  call void (ptr, ptr, ...) @zend_throw_error(ptr noundef null, ptr noundef nonnull @.str.1) #5
  %15 = load ptr, ptr getelementptr inbounds (%struct._zend_executor_globals, ptr @executor_globals, i64 0, i32 50), align 8
  %16 = icmp ne ptr %15, null
  call void @llvm.assume(i1 %16)
  br label %44

17:                                               ; preds = %12
  %18 = load ptr, ptr getelementptr inbounds (%struct._php_ps_globals, ptr @ps_globals, i64 0, i32 12), align 8
  %19 = icmp eq ptr %18, null
  br i1 %19, label %20, label %23

20:                                               ; preds = %17
  call void (ptr, ptr, ...) @zend_throw_error(ptr noundef null, ptr noundef nonnull @.str.2) #5
  %21 = load ptr, ptr getelementptr inbounds (%struct._zend_executor_globals, ptr @executor_globals, i64 0, i32 50), align 8
  %22 = icmp ne ptr %21, null
  call void @llvm.assume(i1 %22)
  br label %44

23:                                               ; preds = %17
  %24 = load i8, ptr getelementptr inbounds (%struct._php_ps_globals, ptr @ps_globals, i64 0, i32 27), align 1
  %25 = and i8 %24, 1
  %.not8 = icmp eq i8 %25, 0
  br i1 %.not8, label %26, label %28

26:                                               ; preds = %23
  call void (ptr, i32, ptr, ...) @php_error_docref(ptr noundef null, i32 noundef 2, ptr noundef nonnull @.str.4) #5
  %27 = getelementptr inbounds i8, ptr %1, i64 8
  store i32 2, ptr %27, align 8
  br label %44

28:                                               ; preds = %23
  %29 = getelementptr inbounds i8, ptr %18, i64 24
  %30 = load ptr, ptr %29, align 8
  %31 = load ptr, ptr %4, align 8
  %32 = load i64, ptr getelementptr inbounds (%struct._php_ps_globals, ptr @ps_globals, i64 0, i32 22), align 16
  %33 = call i32 %30(ptr noundef nonnull getelementptr inbounds (%struct._php_ps_globals, ptr @ps_globals, i64 0, i32 13), ptr noundef %31, ptr noundef nonnull %3, i64 noundef %32) #5
  %34 = icmp eq i32 %33, -1
  br i1 %34, label %35, label %37

35:                                               ; preds = %28
  %36 = getelementptr inbounds i8, ptr %1, i64 8
  store i32 2, ptr %36, align 8
  br label %44

37:                                               ; preds = %28
  %38 = load ptr, ptr %3, align 8
  store ptr %38, ptr %1, align 8
  %39 = getelementptr inbounds i8, ptr %38, i64 4
  %40 = load i32, ptr %39, align 4
  %41 = and i32 %40, 64
  %.not9 = icmp eq i32 %41, 0
  %42 = select i1 %.not9, i32 262, i32 6
  %43 = getelementptr inbounds i8, ptr %1, i64 8
  store i32 %42, ptr %43, align 8
  br label %44

44:                                               ; preds = %37, %35, %26, %20, %14, %9
  ret void
}